; ModuleID = 'source-C-CXX/24/39.cpp'
source_filename = "source-C-CXX/24/39.cpp"
target datalayout = "e-m:e-p270:32:32-p271:32:32-p272:64:64-i64:64-f80:128-n8:16:32:64-S128"
target triple = "x86_64-pc-linux-gnu"

%"class.std::ios_base::Init" = type { i8 }
%"class.std::basic_istream" = type { i32 (...)**, i64, %"class.std::basic_ios" }
%"class.std::basic_ios" = type { %"class.std::ios_base", %"class.std::basic_ostream"*, i8, i8, %"class.std::basic_streambuf"*, %"class.std::ctype"*, %"class.std::num_put"*, %"class.std::num_get"* }
%"class.std::ios_base" = type { i32 (...)**, i64, i64, i32, i32, i32, %"struct.std::ios_base::_Callback_list"*, %"struct.std::ios_base::_Words", [8 x %"struct.std::ios_base::_Words"], i32, %"struct.std::ios_base::_Words"*, %"class.std::locale" }
%"struct.std::ios_base::_Callback_list" = type { %"struct.std::ios_base::_Callback_list"*, void (i32, %"class.std::ios_base"*, i32)*, i32, i32 }
%"struct.std::ios_base::_Words" = type { i8*, i64 }
%"class.std::locale" = type { %"class.std::locale::_Impl"* }
%"class.std::locale::_Impl" = type { i32, %"class.std::locale::facet"**, i64, %"class.std::locale::facet"**, i8** }
%"class.std::locale::facet" = type <{ i32 (...)**, i32, [4 x i8] }>
%"class.std::basic_ostream" = type { i32 (...)**, %"class.std::basic_ios" }
%"class.std::basic_streambuf" = type { i32 (...)**, i8*, i8*, i8*, i8*, i8*, i8*, %"class.std::locale" }
%"class.std::ctype" = type <{ %"class.std::locale::facet.base", [4 x i8], %struct.__locale_struct*, i8, [7 x i8], i32*, i32*, i16*, i8, [256 x i8], [256 x i8], i8, [6 x i8] }>
%"class.std::locale::facet.base" = type <{ i32 (...)**, i32 }>
%struct.__locale_struct = type { [13 x %struct.__locale_data*], i16*, i32*, i32*, [13 x i8*] }
%struct.__locale_data = type opaque
%"class.std::num_put" = type { %"class.std::locale::facet.base", [4 x i8] }
%"class.std::num_get" = type { %"class.std::locale::facet.base", [4 x i8] }

@_ZStL8__ioinit = internal global %"class.std::ios_base::Init" zeroinitializer, align 1
@__dso_handle = external hidden global i8
@_ZSt3cin = external global %"class.std::basic_istream", align 8
@_ZSt4cout = external global %"class.std::basic_ostream", align 8
@llvm.global_ctors = appending global [1 x { i32, void ()*, i8* }] [{ i32, void ()*, i8* } { i32 65535, void ()* @_GLOBAL__sub_I_39.cpp, i8* null }]

declare void @_ZNSt8ios_base4InitC1Ev(%"class.std::ios_base::Init"* nonnull align 1 dereferenceable(1)) unnamed_addr #0

; Function Attrs: nounwind
declare void @_ZNSt8ios_base4InitD1Ev(%"class.std::ios_base::Init"* nonnull align 1 dereferenceable(1)) unnamed_addr #1

; Function Attrs: nofree nounwind
declare i32 @__cxa_atexit(void (i8*)*, i8*, i8*) local_unnamed_addr #2

; Function Attrs: mustprogress norecurse sspstrong uwtable
define dso_local i32 @main() local_unnamed_addr #3 {
  %1 = alloca i32, align 4
  %2 = alloca [100 x i32], align 16
  %3 = bitcast i32* %1 to i8*
  call void @llvm.lifetime.start.p0i8(i64 4, i8* nonnull %3) #9
  %4 = bitcast [100 x i32]* %2 to i8*
  call void @llvm.lifetime.start.p0i8(i64 400, i8* nonnull %4) #9
  call void @llvm.memset.p0i8.i64(i8* noundef nonnull align 16 dereferenceable(400) %4, i8 0, i64 400, i1 false)
  %5 = getelementptr inbounds [100 x i32], [100 x i32]* %2, i64 0, i64 0
  store i32 1, i32* %5, align 16, !tbaa !5
  %6 = call nonnull align 8 dereferenceable(16) %"class.std::basic_istream"* @_ZNSirsERi(%"class.std::basic_istream"* nonnull align 8 dereferenceable(16) @_ZSt3cin, i32* nonnull align 4 dereferenceable(4) %1)
  %7 = load i32, i32* %1, align 4, !tbaa !5
  %8 = icmp sgt i32 %7, 0
  br i1 %8, label %9, label %40

9:                                                ; preds = %0, %37
  %10 = phi i32 [ %38, %37 ], [ 0, %0 ]
  br label %11

11:                                               ; preds = %9, %11
  %12 = phi i64 [ %16, %11 ], [ 99, %9 ]
  %13 = getelementptr inbounds [100 x i32], [100 x i32]* %2, i64 0, i64 %12
  %14 = load i32, i32* %13, align 4, !tbaa !5
  %15 = icmp eq i32 %14, 0
  %16 = add i64 %12, -1
  br i1 %15, label %17, label %11, !llvm.loop !9

17:                                               ; preds = %11
  %18 = trunc i64 %12 to i32
  %19 = icmp sgt i32 %18, -1
  br i1 %19, label %20, label %37

20:                                               ; preds = %17
  %21 = and i64 %12, 4294967295
  br label %22

22:                                               ; preds = %34, %20
  %23 = phi i64 [ %21, %20 ], [ %36, %34 ]
  %24 = getelementptr inbounds [100 x i32], [100 x i32]* %2, i64 0, i64 %23
  %25 = load i32, i32* %24, align 4, !tbaa !5
  %26 = shl nsw i32 %25, 1
  store i32 %26, i32* %24, align 4, !tbaa !5
  %27 = icmp sgt i32 %25, 4
  br i1 %27, label %28, label %34

28:                                               ; preds = %22
  %29 = add nuw nsw i64 %23, 1
  %30 = getelementptr inbounds [100 x i32], [100 x i32]* %2, i64 0, i64 %29
  %31 = load i32, i32* %30, align 4, !tbaa !5
  %32 = add nsw i32 %31, 1
  store i32 %32, i32* %30, align 4, !tbaa !5
  %33 = add nsw i32 %26, -10
  store i32 %33, i32* %24, align 4, !tbaa !5
  br label %34

34:                                               ; preds = %28, %22
  %35 = icmp sgt i64 %23, 0
  %36 = add nsw i64 %23, -1
  br i1 %35, label %22, label %37, !llvm.loop !11

37:                                               ; preds = %34, %17
  %38 = add nuw nsw i32 %10, 1
  %39 = icmp eq i32 %38, %7
  br i1 %39, label %40, label %9, !llvm.loop !12

40:                                               ; preds = %37, %0
  br label %41

41:                                               ; preds = %40, %41
  %42 = phi i64 [ %46, %41 ], [ 99, %40 ]
  %43 = getelementptr inbounds [100 x i32], [100 x i32]* %2, i64 0, i64 %42
  %44 = load i32, i32* %43, align 4, !tbaa !5
  %45 = icmp eq i32 %44, 0
  %46 = add i64 %42, -1
  br i1 %45, label %41, label %47, !llvm.loop !13

47:                                               ; preds = %41
  %48 = trunc i64 %42 to i32
  %49 = icmp sgt i32 %48, -1
  br i1 %49, label %50, label %59

50:                                               ; preds = %47
  %51 = and i64 %42, 4294967295
  br label %52

52:                                               ; preds = %50, %52
  %53 = phi i64 [ %51, %50 ], [ %58, %52 ]
  %54 = getelementptr inbounds [100 x i32], [100 x i32]* %2, i64 0, i64 %53
  %55 = load i32, i32* %54, align 4, !tbaa !5
  %56 = call nonnull align 8 dereferenceable(8) %"class.std::basic_ostream"* @_ZNSolsEi(%"class.std::basic_ostream"* nonnull align 8 dereferenceable(8) @_ZSt4cout, i32 %55)
  %57 = icmp sgt i64 %53, 0
  %58 = add nsw i64 %53, -1
  br i1 %57, label %52, label %59, !llvm.loop !14

59:                                               ; preds = %52, %47
  %60 = load i8*, i8** bitcast (%"class.std::basic_ostream"* @_ZSt4cout to i8**), align 8, !tbaa !15
  %61 = getelementptr i8, i8* %60, i64 -24
  %62 = bitcast i8* %61 to i64*
  %63 = load i64, i64* %62, align 8
  %64 = add nsw i64 %63, 240
  %65 = getelementptr inbounds i8, i8* bitcast (%"class.std::basic_ostream"* @_ZSt4cout to i8*), i64 %64
  %66 = bitcast i8* %65 to %"class.std::ctype"**
  %67 = load %"class.std::ctype"*, %"class.std::ctype"** %66, align 8, !tbaa !17
  %68 = icmp eq %"class.std::ctype"* %67, null
  br i1 %68, label %69, label %70

69:                                               ; preds = %59
  call void @_ZSt16__throw_bad_castv() #10
  unreachable

70:                                               ; preds = %59
  %71 = getelementptr inbounds %"class.std::ctype", %"class.std::ctype"* %67, i64 0, i32 8
  %72 = load i8, i8* %71, align 8, !tbaa !21
  %73 = icmp eq i8 %72, 0
  br i1 %73, label %77, label %74

74:                                               ; preds = %70
  %75 = getelementptr inbounds %"class.std::ctype", %"class.std::ctype"* %67, i64 0, i32 9, i64 10
  %76 = load i8, i8* %75, align 1, !tbaa !23
  br label %83

77:                                               ; preds = %70
  call void @_ZNKSt5ctypeIcE13_M_widen_initEv(%"class.std::ctype"* nonnull align 8 dereferenceable(570) %67)
  %78 = bitcast %"class.std::ctype"* %67 to i8 (%"class.std::ctype"*, i8)***
  %79 = load i8 (%"class.std::ctype"*, i8)**, i8 (%"class.std::ctype"*, i8)*** %78, align 8, !tbaa !15
  %80 = getelementptr inbounds i8 (%"class.std::ctype"*, i8)*, i8 (%"class.std::ctype"*, i8)** %79, i64 6
  %81 = load i8 (%"class.std::ctype"*, i8)*, i8 (%"class.std::ctype"*, i8)** %80, align 8
  %82 = call signext i8 %81(%"class.std::ctype"* nonnull align 8 dereferenceable(570) %67, i8 signext 10)
  br label %83

83:                                               ; preds = %74, %77
  %84 = phi i8 [ %76, %74 ], [ %82, %77 ]
  %85 = call nonnull align 8 dereferenceable(8) %"class.std::basic_ostream"* @_ZNSo3putEc(%"class.std::basic_ostream"* nonnull align 8 dereferenceable(8) @_ZSt4cout, i8 signext %84)
  %86 = call nonnull align 8 dereferenceable(8) %"class.std::basic_ostream"* @_ZNSo5flushEv(%"class.std::basic_ostream"* nonnull align 8 dereferenceable(8) %85)
  call void @llvm.lifetime.end.p0i8(i64 400, i8* nonnull %4) #9
  call void @llvm.lifetime.end.p0i8(i64 4, i8* nonnull %3) #9
  ret i32 0
}

; Function Attrs: argmemonly mustprogress nofree nosync nounwind willreturn
declare void @llvm.lifetime.start.p0i8(i64 immarg, i8* nocapture) #4

; Function Attrs: argmemonly mustprogress nofree nounwind willreturn writeonly
declare void @llvm.memset.p0i8.i64(i8* nocapture writeonly, i8, i64, i1 immarg) #5

declare nonnull align 8 dereferenceable(16) %"class.std::basic_istream"* @_ZNSirsERi(%"class.std::basic_istream"* nonnull align 8 dereferenceable(16), i32* nonnull align 4 dereferenceable(4)) local_unnamed_addr #0

; Function Attrs: mustprogress nofree norecurse nosync nounwind sspstrong uwtable
define dso_local void @_Z3addPi(i32* nocapture %0) local_unnamed_addr #6 {
  br label %2

2:                                                ; preds = %2, %1
  %3 = phi i64 [ %7, %2 ], [ 99, %1 ]
  %4 = getelementptr inbounds i32, i32* %0, i64 %3
  %5 = load i32, i32* %4, align 4, !tbaa !5
  %6 = icmp eq i32 %5, 0
  %7 = add i64 %3, -1
  br i1 %6, label %8, label %2, !llvm.loop !9

8:                                                ; preds = %2
  %9 = trunc i64 %3 to i32
  %10 = icmp sgt i32 %9, -1
  br i1 %10, label %11, label %28

11:                                               ; preds = %8
  %12 = and i64 %3, 4294967295
  br label %13

13:                                               ; preds = %11, %25
  %14 = phi i64 [ %12, %11 ], [ %27, %25 ]
  %15 = getelementptr inbounds i32, i32* %0, i64 %14
  %16 = load i32, i32* %15, align 4, !tbaa !5
  %17 = shl nsw i32 %16, 1
  store i32 %17, i32* %15, align 4, !tbaa !5
  %18 = icmp sgt i32 %16, 4
  br i1 %18, label %19, label %25

19:                                               ; preds = %13
  %20 = add nuw nsw i64 %14, 1
  %21 = getelementptr inbounds i32, i32* %0, i64 %20
  %22 = load i32, i32* %21, align 4, !tbaa !5
  %23 = add nsw i32 %22, 1
  store i32 %23, i32* %21, align 4, !tbaa !5
  %24 = add nsw i32 %17, -10
  store i32 %24, i32* %15, align 4, !tbaa !5
  br label %25

25:                                               ; preds = %13, %19
  %26 = icmp sgt i64 %14, 0
  %27 = add nsw i64 %14, -1
  br i1 %26, label %13, label %28, !llvm.loop !11

28:                                               ; preds = %25, %8
  ret void
}

declare nonnull align 8 dereferenceable(8) %"class.std::basic_ostream"* @_ZNSolsEi(%"class.std::basic_ostream"* nonnull align 8 dereferenceable(8), i32) local_unnamed_addr #0

; Function Attrs: argmemonly mustprogress nofree nosync nounwind willreturn
declare void @llvm.lifetime.end.p0i8(i64 immarg, i8* nocapture) #4

declare nonnull align 8 dereferenceable(8) %"class.std::basic_ostream"* @_ZNSo3putEc(%"class.std::basic_ostream"* nonnull align 8 dereferenceable(8), i8 signext) local_unnamed_addr #0

declare nonnull align 8 dereferenceable(8) %"class.std::basic_ostream"* @_ZNSo5flushEv(%"class.std::basic_ostream"* nonnull align 8 dereferenceable(8)) local_unnamed_addr #0

; Function Attrs: noreturn
declare void @_ZSt16__throw_bad_castv() local_unnamed_addr #7

declare void @_ZNKSt5ctypeIcE13_M_widen_initEv(%"class.std::ctype"* nonnull align 8 dereferenceable(570)) local_unnamed_addr #0

; Function Attrs: sspstrong uwtable
define internal void @_GLOBAL__sub_I_39.cpp() #8 section ".text.startup" {
  tail call void @_ZNSt8ios_base4InitC1Ev(%"class.std::ios_base::Init"* nonnull align 1 dereferenceable(1) @_ZStL8__ioinit)
  %1 = tail call i32 @__cxa_atexit(void (i8*)* bitcast (void (%"class.std::ios_base::Init"*)* @_ZNSt8ios_base4InitD1Ev to void (i8*)*), i8* getelementptr inbounds (%"class.std::ios_base::Init", %"class.std::ios_base::Init"* @_ZStL8__ioinit, i64 0, i32 0), i8* nonnull @__dso_handle) #9
  ret void
}


!llvm.module.flags = !{!0, !1, !2, !3}
!llvm.ident = !{!4}

!0 = !{i32 1, !"wchar_size", i32 4}
!1 = !{i32 7, !"PIC Level", i32 2}
!2 = !{i32 7, !"PIE Level", i32 2}
!3 = !{i32 7, !"uwtable", i32 1}
!4 = !{!"clang version 13.0.0"}
!5 = !{!6, !6, i64 0}
!6 = !{!"int", !7, i64 0}
!7 = !{!"omnipotent char", !8, i64 0}
!8 = !{!"Simple C++ TBAA"}
!9 = distinct !{!9, !10}
!10 = !{!"llvm.loop.mustprogress"}
!11 = distinct !{!11, !10}
!12 = distinct !{!12, !10}
!13 = distinct !{!13, !10}
!14 = distinct !{!14, !10}
!15 = !{!16, !16, i64 0}
!16 = !{!"vtable pointer", !8, i64 0}
!17 = !{!18, !19, i64 240}
!18 = !{!"_ZTSSt9basic_iosIcSt11char_traitsIcEE", !19, i64 216, !7, i64 224, !20, i64 225, !19, i64 232, !19, i64 240, !19, i64 248, !19, i64 256}
!19 = !{!"any pointer", !7, i64 0}
!20 = !{!"bool", !7, i64 0}
!21 = !{!22, !7, i64 56}
!22 = !{!"_ZTSSt5ctypeIcE", !19, i64 16, !20, i64 24, !19, i64 32, !19, i64 40, !19, i64 48, !7, i64 56, !7, i64 57, !7, i64 313, !7, i64 569}
!23 = !{!7, !7, i64 0}
